; Function Attrs: nounwind uwtable
define internal range(i32 -1, 1) i32 @H5O__layout_reset(ptr noundef %0) #0 {
  %2 = load i8, ptr @H5O_init_g, align 1, !tbaa !8, !range !10, !noundef !11
  %3 = trunc nuw i8 %2 to i1
  %4 = load i8, ptr @H5_libterm_g, align 1, !range !10
  %5 = trunc nuw i8 %4 to i1
  %6 = xor i1 %5, true
  %7 = select i1 %3, i1 true, i1 %6
  %8 = icmp ne ptr %0, null
  %or.cond = and i1 %8, %7
  br i1 %or.cond, label %9, label %24, !prof !68

9:                                                ; preds = %1
  %10 = load i32, ptr %0, align 8, !tbaa !22
  switch i32 %10, label %22 [
    i32 0, label %11
    i32 3, label %15
  ]

11:                                               ; preds = %9
  %12 = getelementptr inbounds nuw i8, ptr %0, i64 1936
  %13 = load ptr, ptr %12, align 8, !tbaa !20
  %14 = tail call ptr @H5MM_xfree(ptr noundef %13) #12
  store ptr %14, ptr %12, align 8, !tbaa !20
  br label %22

15:                                               ; preds = %9
  %16 = tail call i32 @H5D__virtual_reset_layout(ptr noundef nonnull %0) #12
  %17 = icmp slt i32 %16, 0
  br i1 %17, label %18, label %22

18:                                               ; preds = %15
  %19 = load i64, ptr @H5E_OHDR_g, align 8, !tbaa !13
  %20 = load i64, ptr @H5E_CANTFREE_g, align 8, !tbaa !13
  %21 = tail call i32 (ptr, ptr, i32, i64, i64, ptr, ...) @H5E_printf_stack(ptr noundef nonnull @.str.2, ptr noundef nonnull @__func__.H5O__layout_reset, i32 noundef 1085, i64 noundef %19, i64 noundef %20, ptr noundef nonnull @.str.41) #12
  br label %24

22:                                               ; preds = %9, %15, %11
  store i32 1, ptr %0, align 8, !tbaa !22
  %23 = getelementptr inbounds nuw i8, ptr %0, i64 4
  store i32 3, ptr %23, align 4, !tbaa !21
  br label %24

24:                                               ; preds = %18, %22, %1
  %.0 = phi i32 [ 0, %22 ], [ -1, %18 ], [ 0, %1 ]
  ret i32 %.0
}